; Function Attrs: nounwind uwtable
define internal i32 @lj_cf_io_method_setvbuf(ptr noundef %0) #0 {
  %2 = getelementptr inbounds nuw i8, ptr %0, i64 32
  %3 = load ptr, ptr %2, align 8, !tbaa !25
  %4 = getelementptr inbounds nuw i8, ptr %0, i64 40
  %5 = load ptr, ptr %4, align 8, !tbaa !4
  %6 = icmp ult ptr %3, %5
  br i1 %6, label %7, label %16

7:                                                ; preds = %1
  %8 = load i64, ptr %3, align 8, !tbaa !14
  %.mask.i.i = and i64 %8, -140737488355328
  %9 = icmp eq i64 %.mask.i.i, -1829587348619264
  br i1 %9, label %10, label %16

10:                                               ; preds = %7
  %11 = and i64 %8, 140737488355327
  %12 = inttoptr i64 %11 to ptr
  %13 = getelementptr inbounds nuw i8, ptr %12, i64 10
  %14 = load i8, ptr %13, align 2, !tbaa !14
  %15 = icmp eq i8 %14, 1
  br i1 %15, label %io_tofilep.exit.i, label %16

16:                                               ; preds = %10, %7, %1
  tail call void @lj_err_argtype(ptr noundef nonnull %0, i32 noundef 1, ptr noundef nonnull @.str) #11
  unreachable

io_tofilep.exit.i:                                ; preds = %10
  %17 = getelementptr inbounds nuw i8, ptr %12, i64 48
  %18 = load ptr, ptr %17, align 8, !tbaa !20
  %19 = icmp eq ptr %18, null
  br i1 %19, label %20, label %io_tofile.exit

20:                                               ; preds = %io_tofilep.exit.i
  tail call void @lj_err_caller(ptr noundef nonnull %0, i32 noundef 1531) #11
  unreachable

io_tofile.exit:                                   ; preds = %io_tofilep.exit.i
  %21 = tail call i32 @lj_lib_checkopt(ptr noundef nonnull %0, i32 noundef 2, i32 noundef -1, ptr noundef nonnull @.str.10) #10
  %22 = tail call i32 @lj_lib_optint(ptr noundef nonnull %0, i32 noundef 3, i32 noundef 8192) #10
  %23 = sext i32 %22 to i64
  %24 = tail call i32 @setvbuf(ptr noundef nonnull %18, ptr noundef null, i32 noundef %21, i64 noundef %23) #10
  %25 = icmp eq i32 %24, 0
  %26 = zext i1 %25 to i32
  %27 = tail call i32 @luaL_fileresult(ptr noundef nonnull %0, i32 noundef %26, ptr noundef null) #10
  ret i32 %27
}